target datalayout = "e-m:e-p270:32:32-p271:32:32-p272:64:64-i64:64-i128:128-f80:128-n8:16:32:64-S128"
target triple = "x86_64-pc-linux-gnu"

%struct.SDF_Raster_Params_ = type { %struct.FT_Raster_Params_, i32, i8, i8, i8 }
%struct.FT_Raster_Params_ = type { ptr, ptr, i32, ptr, ptr, ptr, ptr, ptr, %struct.FT_BBox_ }
%struct.FT_BBox_ = type { i64, i64, i64, i64 }
%struct.FT_Bitmap_ = type { i32, i32, i32, ptr, i16, i8, i8, ptr }
%struct.BSDF_TRaster_ = type { ptr }
%struct.BSDF_Worker_ = type { ptr, i32, i32, %struct.SDF_Raster_Params_ }

; Function Attrs: nounwind uwtable
define internal i32 @bsdf_raster_render(ptr noundef %0, ptr noundef %1) #0 {
  %3 = alloca ptr, align 8
  %4 = alloca ptr, align 8
  %5 = alloca i32, align 4
  %6 = alloca ptr, align 8
  %7 = alloca ptr, align 8
  %8 = alloca ptr, align 8
  %9 = alloca ptr, align 8
  %10 = alloca %struct.BSDF_Worker_, align 8
  %11 = alloca ptr, align 8
  store ptr %0, ptr %3, align 8, !tbaa !104
  store ptr %1, ptr %4, align 8, !tbaa !105
  call void @llvm.lifetime.start.p0(i64 4, ptr %5) #7
  store i32 0, ptr %5, align 4, !tbaa !31
  call void @llvm.lifetime.start.p0(i64 8, ptr %6) #7
  store ptr null, ptr %6, align 8, !tbaa !38
  call void @llvm.lifetime.start.p0(i64 8, ptr %7) #7
  store ptr null, ptr %7, align 8, !tbaa !36
  call void @llvm.lifetime.start.p0(i64 8, ptr %8) #7
  store ptr null, ptr %8, align 8, !tbaa !36
  call void @llvm.lifetime.start.p0(i64 8, ptr %9) #7
  %12 = load ptr, ptr %3, align 8, !tbaa !104
  store ptr %12, ptr %9, align 8, !tbaa !100
  call void @llvm.lifetime.start.p0(i64 120, ptr %10) #7
  call void @llvm.lifetime.start.p0(i64 8, ptr %11) #7
  %13 = load ptr, ptr %4, align 8, !tbaa !105
  store ptr %13, ptr %11, align 8, !tbaa !107
  %14 = getelementptr inbounds nuw %struct.BSDF_Worker_, ptr %10, i32 0, i32 0
  store ptr null, ptr %14, align 8, !tbaa !109
  %15 = load ptr, ptr %3, align 8, !tbaa !104
  %16 = icmp ne ptr %15, null
  br i1 %16, label %17, label %20

17:                                               ; preds = %2
  %18 = load ptr, ptr %4, align 8, !tbaa !105
  %19 = icmp ne ptr %18, null
  br i1 %19, label %21, label %20

20:                                               ; preds = %17, %2
  store i32 6, ptr %5, align 4, !tbaa !31
  br label %152

21:                                               ; preds = %17
  %22 = load ptr, ptr %11, align 8, !tbaa !107
  %23 = getelementptr inbounds nuw %struct.SDF_Raster_Params_, ptr %22, i32 0, i32 0
  %24 = getelementptr inbounds nuw %struct.FT_Raster_Params_, ptr %23, i32 0, i32 2
  %25 = load i32, ptr %24, align 8, !tbaa !74
  %26 = icmp ne i32 %25, 8
  br i1 %26, label %27, label %28

27:                                               ; preds = %21
  store i32 97, ptr %5, align 4, !tbaa !31
  br label %152

28:                                               ; preds = %21
  %29 = load ptr, ptr %11, align 8, !tbaa !107
  %30 = getelementptr inbounds nuw %struct.SDF_Raster_Params_, ptr %29, i32 0, i32 0
  %31 = getelementptr inbounds nuw %struct.FT_Raster_Params_, ptr %30, i32 0, i32 1
  %32 = load ptr, ptr %31, align 8, !tbaa !73
  store ptr %32, ptr %7, align 8, !tbaa !36
  %33 = load ptr, ptr %11, align 8, !tbaa !107
  %34 = getelementptr inbounds nuw %struct.SDF_Raster_Params_, ptr %33, i32 0, i32 0
  %35 = getelementptr inbounds nuw %struct.FT_Raster_Params_, ptr %34, i32 0, i32 0
  %36 = load ptr, ptr %35, align 8, !tbaa !69
  store ptr %36, ptr %8, align 8, !tbaa !36
  %37 = load ptr, ptr %7, align 8, !tbaa !36
  %38 = icmp ne ptr %37, null
  br i1 %38, label %39, label %42

39:                                               ; preds = %28
  %40 = load ptr, ptr %8, align 8, !tbaa !36
  %41 = icmp ne ptr %40, null
  br i1 %41, label %43, label %42

42:                                               ; preds = %39, %28
  store i32 6, ptr %5, align 4, !tbaa !31
  br label %152

43:                                               ; preds = %39
  %44 = load ptr, ptr %9, align 8, !tbaa !100
  %45 = getelementptr inbounds nuw %struct.BSDF_TRaster_, ptr %44, i32 0, i32 0
  %46 = load ptr, ptr %45, align 8, !tbaa !102
  store ptr %46, ptr %6, align 8, !tbaa !38
  %47 = load ptr, ptr %6, align 8, !tbaa !38
  %48 = icmp ne ptr %47, null
  br i1 %48, label %56, label %49

49:                                               ; preds = %43
  br label %50

50:                                               ; preds = %49
  br label %51

51:                                               ; preds = %50
  br label %52

52:                                               ; preds = %51
  br label %53

53:                                               ; preds = %52
  br label %54

54:                                               ; preds = %53
  br label %55

55:                                               ; preds = %54
  store i32 32, ptr %5, align 4, !tbaa !31
  br label %152

56:                                               ; preds = %43
  %57 = load ptr, ptr %11, align 8, !tbaa !107
  %58 = getelementptr inbounds nuw %struct.SDF_Raster_Params_, ptr %57, i32 0, i32 1
  %59 = load i32, ptr %58, align 8, !tbaa !75
  %60 = icmp ugt i32 %59, 32
  br i1 %60, label %66, label %61

61:                                               ; preds = %56
  %62 = load ptr, ptr %11, align 8, !tbaa !107
  %63 = getelementptr inbounds nuw %struct.SDF_Raster_Params_, ptr %62, i32 0, i32 1
  %64 = load i32, ptr %63, align 8, !tbaa !75
  %65 = icmp ult i32 %64, 2
  br i1 %65, label %66, label %88

66:                                               ; preds = %61, %56
  br label %67

67:                                               ; preds = %66
  br label %68

68:                                               ; preds = %67
  br label %69

69:                                               ; preds = %68
  br label %70

70:                                               ; preds = %69
  br label %71

71:                                               ; preds = %70
  br label %72

72:                                               ; preds = %71
  br label %73

73:                                               ; preds = %72
  br label %74

74:                                               ; preds = %73
  br label %75

75:                                               ; preds = %74
  br label %76

76:                                               ; preds = %75
  br label %77

77:                                               ; preds = %76
  br label %78

78:                                               ; preds = %77
  br label %79

79:                                               ; preds = %78
  br label %80

80:                                               ; preds = %79
  br label %81

81:                                               ; preds = %80
  br label %82

82:                                               ; preds = %81
  br label %83

83:                                               ; preds = %82
  br label %84

84:                                               ; preds = %83
  br label %85

85:                                               ; preds = %84
  br label %86

86:                                               ; preds = %85
  br label %87

87:                                               ; preds = %86
  store i32 6, ptr %5, align 4, !tbaa !31
  br label %152

88:                                               ; preds = %61
  %89 = load ptr, ptr %6, align 8, !tbaa !38
  %90 = load ptr, ptr %8, align 8, !tbaa !36
  %91 = getelementptr inbounds nuw %struct.FT_Bitmap_, ptr %90, i32 0, i32 1
  %92 = load i32, ptr %91, align 4, !tbaa !62
  %93 = zext i32 %92 to i64
  %94 = mul i64 %93, 32
  %95 = load ptr, ptr %8, align 8, !tbaa !36
  %96 = getelementptr inbounds nuw %struct.FT_Bitmap_, ptr %95, i32 0, i32 0
  %97 = load i32, ptr %96, align 8, !tbaa !60
  %98 = zext i32 %97 to i64
  %99 = call ptr @ft_mem_qrealloc(ptr noundef %89, i64 noundef %94, i64 noundef 0, i64 noundef %98, ptr noundef null, ptr noundef %5)
  %100 = getelementptr inbounds nuw %struct.BSDF_Worker_, ptr %10, i32 0, i32 0
  store ptr %99, ptr %100, align 8, !tbaa !109
  %101 = load i32, ptr %5, align 4, !tbaa !31
  %102 = icmp ne i32 %101, 0
  br i1 %102, label %103, label %104

103:                                              ; preds = %88
  br label %152

104:                                              ; preds = %88
  %105 = load ptr, ptr %8, align 8, !tbaa !36
  %106 = getelementptr inbounds nuw %struct.FT_Bitmap_, ptr %105, i32 0, i32 1
  %107 = load i32, ptr %106, align 4, !tbaa !62
  %108 = getelementptr inbounds nuw %struct.BSDF_Worker_, ptr %10, i32 0, i32 1
  store i32 %107, ptr %108, align 8, !tbaa !112
  %109 = load ptr, ptr %8, align 8, !tbaa !36
  %110 = getelementptr inbounds nuw %struct.FT_Bitmap_, ptr %109, i32 0, i32 0
  %111 = load i32, ptr %110, align 8, !tbaa !60
  %112 = getelementptr inbounds nuw %struct.BSDF_Worker_, ptr %10, i32 0, i32 2
  store i32 %111, ptr %112, align 4, !tbaa !113
  %113 = getelementptr inbounds nuw %struct.BSDF_Worker_, ptr %10, i32 0, i32 3
  %114 = load ptr, ptr %11, align 8, !tbaa !107
  call void @llvm.memcpy.p0.p0.i64(ptr align 8 %113, ptr align 8 %114, i64 104, i1 false), !tbaa.struct !114
  br label %115

115:                                              ; preds = %104
  %116 = load ptr, ptr %7, align 8, !tbaa !36
  %117 = call i32 @bsdf_init_distance_map(ptr noundef %116, ptr noundef %10)
  store i32 %117, ptr %5, align 4, !tbaa !31
  %118 = load i32, ptr %5, align 4, !tbaa !31
  %119 = icmp ne i32 %118, 0
  br i1 %119, label %120, label %121

120:                                              ; preds = %115
  br label %152

121:                                              ; preds = %115
  br label %122

122:                                              ; preds = %121
  br label %123

123:                                              ; preds = %122
  br label %124

124:                                              ; preds = %123
  %125 = call i32 @bsdf_approximate_edge(ptr noundef %10)
  store i32 %125, ptr %5, align 4, !tbaa !31
  %126 = load i32, ptr %5, align 4, !tbaa !31
  %127 = icmp ne i32 %126, 0
  br i1 %127, label %128, label %129

128:                                              ; preds = %124
  br label %152

129:                                              ; preds = %124
  br label %130

130:                                              ; preds = %129
  br label %131

131:                                              ; preds = %130
  br label %132

132:                                              ; preds = %131
  %133 = call i32 @edt8(ptr noundef %10)
  store i32 %133, ptr %5, align 4, !tbaa !31
  %134 = load i32, ptr %5, align 4, !tbaa !31
  %135 = icmp ne i32 %134, 0
  br i1 %135, label %136, label %137

136:                                              ; preds = %132
  br label %152

137:                                              ; preds = %132
  br label %138

138:                                              ; preds = %137
  br label %139

139:                                              ; preds = %138
  br label %140

140:                                              ; preds = %139
  %141 = load ptr, ptr %8, align 8, !tbaa !36
  %142 = call i32 @finalize_sdf(ptr noundef %10, ptr noundef %141)
  store i32 %142, ptr %5, align 4, !tbaa !31
  %143 = load i32, ptr %5, align 4, !tbaa !31
  %144 = icmp ne i32 %143, 0
  br i1 %144, label %145, label %146

145:                                              ; preds = %140
  br label %152

146:                                              ; preds = %140
  br label %147

147:                                              ; preds = %146
  br label %148

148:                                              ; preds = %147
  br label %149

149:                                              ; preds = %148
  br label %150

150:                                              ; preds = %149
  br label %151

151:                                              ; preds = %150
  br label %152

152:                                              ; preds = %151, %145, %136, %128, %120, %103, %87, %55, %42, %27, %20
  %153 = getelementptr inbounds nuw %struct.BSDF_Worker_, ptr %10, i32 0, i32 0
  %154 = load ptr, ptr %153, align 8, !tbaa !109
  %155 = icmp ne ptr %154, null
  br i1 %155, label %156, label %164

156:                                              ; preds = %152
  br label %157

157:                                              ; preds = %156
  %158 = load ptr, ptr %6, align 8, !tbaa !38
  %159 = getelementptr inbounds nuw %struct.BSDF_Worker_, ptr %10, i32 0, i32 0
  %160 = load ptr, ptr %159, align 8, !tbaa !109
  call void @ft_mem_free(ptr noundef %158, ptr noundef %160)
  %161 = getelementptr inbounds nuw %struct.BSDF_Worker_, ptr %10, i32 0, i32 0
  store ptr null, ptr %161, align 8, !tbaa !109
  br label %162

162:                                              ; preds = %157
  br label %163

163:                                              ; preds = %162
  br label %164

164:                                              ; preds = %163, %152
  %165 = load i32, ptr %5, align 4, !tbaa !31
  call void @llvm.lifetime.end.p0(i64 8, ptr %11) #7
  call void @llvm.lifetime.end.p0(i64 120, ptr %10) #7
  call void @llvm.lifetime.end.p0(i64 8, ptr %9) #7
  call void @llvm.lifetime.end.p0(i64 8, ptr %8) #7
  call void @llvm.lifetime.end.p0(i64 8, ptr %7) #7
  call void @llvm.lifetime.end.p0(i64 8, ptr %6) #7
  call void @llvm.lifetime.end.p0(i64 4, ptr %5) #7
  ret i32 %165
}