; Function Attrs: nounwind uwtable
define internal i32 @bsdf_raster_render(ptr noundef readonly %0, ptr noundef readonly %1) #2 {
  %3 = alloca i32, align 4
  %4 = alloca %struct.BSDF_Worker_, align 8
  call void @llvm.lifetime.start.p0(i64 4, ptr nonnull %3) #11
  store i32 0, ptr %3, align 4, !tbaa !21
  call void @llvm.lifetime.start.p0(i64 120, ptr nonnull %4) #11
  %5 = icmp ne ptr %0, null
  %6 = icmp ne ptr %1, null
  %or.cond = and i1 %5, %6
  br i1 %or.cond, label %7, label %thread-pre-split.thread

7:                                                ; preds = %2
  %8 = getelementptr inbounds nuw i8, ptr %1, i64 16
  %9 = load i32, ptr %8, align 8, !tbaa !60
  %.not = icmp eq i32 %9, 8
  br i1 %.not, label %10, label %thread-pre-split.thread

10:                                               ; preds = %7
  %11 = getelementptr inbounds nuw i8, ptr %1, i64 8
  %12 = load ptr, ptr %11, align 8, !tbaa !59
  %13 = load ptr, ptr %1, align 8, !tbaa !54
  %14 = icmp ne ptr %12, null
  %15 = icmp ne ptr %13, null
  %or.cond3 = select i1 %14, i1 %15, i1 false
  br i1 %or.cond3, label %16, label %thread-pre-split.thread

16:                                               ; preds = %10
  %17 = load ptr, ptr %0, align 8, !tbaa !79
  %.not32 = icmp eq ptr %17, null
  br i1 %.not32, label %thread-pre-split.thread, label %18

18:                                               ; preds = %16
  %19 = getelementptr inbounds nuw i8, ptr %1, i64 96
  %20 = load i32, ptr %19, align 8, !tbaa !61
  %21 = add i32 %20, -33
  %or.cond38 = icmp ult i32 %21, -31
  br i1 %or.cond38, label %thread-pre-split.thread, label %22

22:                                               ; preds = %18
  %23 = getelementptr inbounds nuw i8, ptr %13, i64 4
  %24 = load i32, ptr %23, align 4, !tbaa !47
  %25 = zext i32 %24 to i64
  %26 = shl nuw nsw i64 %25, 5
  %27 = load i32, ptr %13, align 8, !tbaa !45
  %28 = zext i32 %27 to i64
  %29 = call ptr @ft_mem_qrealloc(ptr noundef nonnull %17, i64 noundef %26, i64 noundef 0, i64 noundef %28, ptr noundef null, ptr noundef nonnull %3) #11
  store ptr %29, ptr %4, align 8, !tbaa !83
  %30 = load i32, ptr %3, align 4, !tbaa !21
  %.not33 = icmp eq i32 %30, 0
  br i1 %.not33, label %31, label %thread-pre-split

31:                                               ; preds = %22
  %32 = load i32, ptr %23, align 4, !tbaa !47
  %33 = getelementptr inbounds nuw i8, ptr %4, i64 8
  store i32 %32, ptr %33, align 8, !tbaa !86
  %34 = load i32, ptr %13, align 8, !tbaa !45
  %35 = getelementptr inbounds nuw i8, ptr %4, i64 12
  store i32 %34, ptr %35, align 4, !tbaa !87
  %36 = getelementptr inbounds nuw i8, ptr %4, i64 16
  call void @llvm.memcpy.p0.p0.i64(ptr noundef nonnull align 8 dereferenceable(104) %36, ptr noundef nonnull align 8 dereferenceable(104) %1, i64 104, i1 false), !tbaa.struct !88
  %37 = call fastcc i32 @bsdf_init_distance_map(ptr noundef %12, ptr noundef %4)
  store i32 %37, ptr %3, align 4, !tbaa !21
  %.not34 = icmp eq i32 %37, 0
  br i1 %.not34, label %38, label %thread-pre-split

38:                                               ; preds = %31
  %39 = call fastcc i32 @bsdf_approximate_edge(ptr noundef %4)
  store i32 %39, ptr %3, align 4, !tbaa !21
  %.not35 = icmp eq i32 %39, 0
  br i1 %.not35, label %40, label %thread-pre-split

40:                                               ; preds = %38
  %41 = call fastcc i32 @edt8(ptr noundef %4)
  store i32 %41, ptr %3, align 4, !tbaa !21
  %.not36 = icmp eq i32 %41, 0
  br i1 %.not36, label %42, label %thread-pre-split

42:                                               ; preds = %40
  %43 = call fastcc i32 @finalize_sdf(ptr noundef %4, ptr noundef %13)
  store i32 %43, ptr %3, align 4, !tbaa !21
  br label %thread-pre-split

thread-pre-split:                                 ; preds = %42, %40, %38, %31, %22
  %44 = phi i32 [ %30, %22 ], [ %43, %42 ], [ %41, %40 ], [ %39, %38 ], [ %37, %31 ]
  %.not37 = icmp eq ptr %29, null
  br i1 %.not37, label %thread-pre-split.thread, label %45

45:                                               ; preds = %thread-pre-split
  call void @ft_mem_free(ptr noundef nonnull %17, ptr noundef nonnull %29) #11
  %.pre = load i32, ptr %3, align 4, !tbaa !21
  br label %thread-pre-split.thread

thread-pre-split.thread:                          ; preds = %18, %16, %10, %7, %2, %45, %thread-pre-split
  %46 = phi i32 [ %.pre, %45 ], [ %44, %thread-pre-split ], [ 6, %2 ], [ 97, %7 ], [ 6, %10 ], [ 32, %16 ], [ 6, %18 ]
  call void @llvm.lifetime.end.p0(i64 120, ptr nonnull %4) #11
  call void @llvm.lifetime.end.p0(i64 4, ptr nonnull %3) #11
  ret i32 %46
}